target datalayout = "e-m:e-p270:32:32-p271:32:32-p272:64:64-i64:64-i128:128-f80:128-n8:16:32:64-S128"
target triple = "x86_64-pc-linux-gnu"

%struct._ikev1_uat_data_key = type { ptr, i32, ptr, i32 }

@.str.1684 = private unnamed_addr constant [68 x i8] c"Length of Initiator's COOKIE must be %d octets (%d hex characters).\00", align 1
@.str.1685 = private unnamed_addr constant [26 x i8] c"Must have Encryption key.\00", align 1
@.str.1686 = private unnamed_addr constant [67 x i8] c"Length of Encryption key limited to %d octets (%d hex characters).\00", align 1

; Function Attrs: null_pointer_is_valid sspstrong uwtable
define internal zeroext i1 @ikev1_uat_data_update_cb(ptr noundef %0, ptr noundef %1) #0 {
  %3 = alloca i1, align 1
  %4 = alloca ptr, align 8
  %5 = alloca ptr, align 8
  %6 = alloca ptr, align 8
  %7 = alloca i32, align 4
  store ptr %0, ptr %4, align 8
  store ptr %1, ptr %5, align 8
  call void @llvm.lifetime.start.p0(i64 8, ptr %6) #16
  %8 = load ptr, ptr %4, align 8
  store ptr %8, ptr %6, align 8
  %9 = load ptr, ptr %6, align 8
  %10 = getelementptr inbounds nuw %struct._ikev1_uat_data_key, ptr %9, i32 0, i32 1
  %11 = load i32, ptr %10, align 8
  %12 = icmp ne i32 %11, 8
  br i1 %12, label %13, label %16

13:                                               ; preds = %2
  %14 = call noalias ptr (ptr, ptr, ...) @wmem_strdup_printf(ptr noundef null, ptr noundef @.str.1684, i32 noundef 8, i32 noundef 16)
  %15 = load ptr, ptr %5, align 8
  store ptr %14, ptr %15, align 8
  store i1 false, ptr %3, align 1
  store i32 1, ptr %7, align 4
  br label %33

16:                                               ; preds = %2
  %17 = load ptr, ptr %6, align 8
  %18 = getelementptr inbounds nuw %struct._ikev1_uat_data_key, ptr %17, i32 0, i32 3
  %19 = load i32, ptr %18, align 8
  %20 = icmp eq i32 %19, 0
  br i1 %20, label %21, label %24

21:                                               ; preds = %16
  %22 = call noalias ptr @g_strdup(ptr noundef @.str.1685)
  %23 = load ptr, ptr %5, align 8
  store ptr %22, ptr %23, align 8
  store i1 false, ptr %3, align 1
  store i32 1, ptr %7, align 4
  br label %33

24:                                               ; preds = %16
  %25 = load ptr, ptr %6, align 8
  %26 = getelementptr inbounds nuw %struct._ikev1_uat_data_key, ptr %25, i32 0, i32 3
  %27 = load i32, ptr %26, align 8
  %28 = icmp ugt i32 %27, 256
  br i1 %28, label %29, label %32

29:                                               ; preds = %24
  %30 = call noalias ptr (ptr, ptr, ...) @wmem_strdup_printf(ptr noundef null, ptr noundef @.str.1686, i32 noundef 256, i32 noundef 512)
  %31 = load ptr, ptr %5, align 8
  store ptr %30, ptr %31, align 8
  store i1 false, ptr %3, align 1
  store i32 1, ptr %7, align 4
  br label %33

32:                                               ; preds = %24
  store i1 true, ptr %3, align 1
  store i32 1, ptr %7, align 4
  br label %33

33:                                               ; preds = %32, %29, %21, %13
  call void @llvm.lifetime.end.p0(i64 8, ptr %6) #16
  %34 = load i1, ptr %3, align 1
  ret i1 %34
}