; Function Attrs: null_pointer_is_valid sspstrong uwtable
define internal noundef zeroext i1 @ikev1_uat_data_update_cb(ptr noundef readonly captures(none) %0, ptr noundef writeonly captures(none) %1) #0 {
  %3 = getelementptr inbounds nuw i8, ptr %0, i64 8
  %4 = load i32, ptr %3, align 8
  %.not = icmp eq i32 %4, 8
  br i1 %.not, label %7, label %5

5:                                                ; preds = %2
  %6 = tail call noalias ptr (ptr, ptr, ...) @wmem_strdup_printf(ptr noundef null, ptr noundef nonnull @.str.1684, i32 noundef 8, i32 noundef 16)
  br label %.sink.split

7:                                                ; preds = %2
  %8 = getelementptr inbounds nuw i8, ptr %0, i64 24
  %9 = load i32, ptr %8, align 8
  %10 = icmp eq i32 %9, 0
  br i1 %10, label %11, label %13

11:                                               ; preds = %7
  %12 = tail call noalias ptr @g_strdup(ptr noundef nonnull @.str.1685)
  br label %.sink.split

13:                                               ; preds = %7
  %14 = icmp ugt i32 %9, 256
  br i1 %14, label %15, label %17

15:                                               ; preds = %13
  %16 = tail call noalias ptr (ptr, ptr, ...) @wmem_strdup_printf(ptr noundef null, ptr noundef nonnull @.str.1686, i32 noundef 256, i32 noundef 512)
  br label %.sink.split

.sink.split:                                      ; preds = %5, %11, %15
  %.sink = phi ptr [ %16, %15 ], [ %12, %11 ], [ %6, %5 ]
  store ptr %.sink, ptr %1, align 8
  br label %17

17:                                               ; preds = %.sink.split, %13
  %.0 = phi i1 [ true, %13 ], [ false, %.sink.split ]
  ret i1 %.0
}